target datalayout = "e-m:e-p270:32:32-p271:32:32-p272:64:64-i64:64-i128:128-f80:128-n8:16:32:64-S128"
target triple = "x86_64-pc-linux-gnu"

@bio_err = external global ptr, align 8
@mr = internal global i32 0, align 4
@run = internal global i32 0, align 4
@.str.471 = private unnamed_addr constant [18 x i8] c"+DTP:%d:%s:%s:%d\0A\00", align 1
@.str.472 = private unnamed_addr constant [34 x i8] c"Doing %u bits %s %s ops for %ds: \00", align 1

; Function Attrs: nounwind uwtable
define internal void @pkey_print_message(ptr noundef %0, ptr noundef %1, i32 noundef %2, i32 noundef %3) #0 {
  %5 = alloca ptr, align 8
  %6 = alloca ptr, align 8
  %7 = alloca i32, align 4
  %8 = alloca i32, align 4
  store ptr %0, ptr %5, align 8, !tbaa !39
  store ptr %1, ptr %6, align 8, !tbaa !39
  store i32 %2, ptr %7, align 4, !tbaa !4
  store i32 %3, ptr %8, align 4, !tbaa !4
  %9 = load ptr, ptr @bio_err, align 8, !tbaa !53
  %10 = load i32, ptr @mr, align 4, !tbaa !4
  %11 = icmp ne i32 %10, 0
  %12 = select i1 %11, ptr @.str.471, ptr @.str.472
  %13 = load i32, ptr %7, align 4, !tbaa !4
  %14 = load ptr, ptr %5, align 8, !tbaa !39
  %15 = load ptr, ptr %6, align 8, !tbaa !39
  %16 = load i32, ptr %8, align 4, !tbaa !4
  %17 = call i32 (ptr, ptr, ...) @BIO_printf(ptr noundef %9, ptr noundef %12, i32 noundef %13, ptr noundef %14, ptr noundef %15, i32 noundef %16)
  %18 = load ptr, ptr @bio_err, align 8, !tbaa !53
  %19 = call i64 @BIO_ctrl(ptr noundef %18, i32 noundef 11, i64 noundef 0, ptr noundef null)
  store volatile i32 1, ptr @run, align 4, !tbaa !4
  %20 = load i32, ptr %8, align 4, !tbaa !4
  %21 = call i32 @alarm(i32 noundef %20) #11
  ret void
}