; Function Attrs: nounwind uwtable
define internal fastcc void @pkey_print_message(ptr noundef %0, ptr noundef %1, i32 noundef %2, i32 noundef %3) unnamed_addr #0 {
  %5 = load ptr, ptr @bio_err, align 8, !tbaa !19
  %.b = load i1, ptr @mr, align 4
  %6 = select i1 %.b, ptr @.str.471, ptr @.str.472
  %7 = tail call i32 (ptr, ptr, ...) @BIO_printf(ptr noundef %5, ptr noundef nonnull %6, i32 noundef %2, ptr noundef %0, ptr noundef %1, i32 noundef %3) #14
  %8 = load ptr, ptr @bio_err, align 8, !tbaa !19
  %9 = tail call i64 @BIO_ctrl(ptr noundef %8, i32 noundef 11, i64 noundef 0, ptr noundef null) #14
  store volatile i32 1, ptr @run, align 4, !tbaa !13
  %10 = tail call i32 @alarm(i32 noundef %3) #14
  ret void
}